target datalayout = "e-m:e-p270:32:32-p271:32:32-p272:64:64-i64:64-i128:128-f80:128-n8:16:32:64-S128"
target triple = "x86_64-pc-linux-gnu"

%struct.bignum_st = type { ptr, i32, i32, i32, i32 }

@.str.22 = private unnamed_addr constant [6 x i8] c"%s 0\0A\00", align 1
@.str.23 = private unnamed_addr constant [2 x i8] c"-\00", align 1
@.str.24 = private unnamed_addr constant [1 x i8] zeroinitializer, align 1
@.str.25 = private unnamed_addr constant [20 x i8] c"%s %s%lu (%s0x%lx)\0A\00", align 1
@.str.26 = private unnamed_addr constant [5 x i8] c"%s%s\00", align 1
@.str.27 = private unnamed_addr constant [12 x i8] c" (Negative)\00", align 1
@.str.28 = private unnamed_addr constant [2 x i8] c"\0A\00", align 1
@.str.29 = private unnamed_addr constant [7 x i8] c"%02x%s\00", align 1
@.str.30 = private unnamed_addr constant [2 x i8] c":\00", align 1

; Function Attrs: nounwind uwtable
define internal i32 @bn_print(ptr noundef %0, ptr noundef %1, ptr noundef %2, ptr noundef %3, i32 noundef %4) #0 {
  %6 = alloca i32, align 4
  %7 = alloca ptr, align 8
  %8 = alloca ptr, align 8
  %9 = alloca ptr, align 8
  %10 = alloca ptr, align 8
  %11 = alloca i32, align 4
  %12 = alloca ptr, align 8
  %13 = alloca i32, align 4
  %14 = alloca i32, align 4
  %15 = alloca i32, align 4
  store ptr %0, ptr %7, align 8, !tbaa !6
  store ptr %1, ptr %8, align 8, !tbaa !28
  store ptr %2, ptr %9, align 8, !tbaa !60
  store ptr %3, ptr %10, align 8, !tbaa !28
  store i32 %4, ptr %11, align 4, !tbaa !13
  %16 = load ptr, ptr %9, align 8, !tbaa !60
  %17 = icmp eq ptr %16, null
  br i1 %17, label %18, label %19

18:                                               ; preds = %5
  store i32 1, ptr %6, align 4
  br label %148

19:                                               ; preds = %5
  %20 = load ptr, ptr %7, align 8, !tbaa !6
  %21 = load i32, ptr %11, align 4, !tbaa !13
  %22 = call i32 @BIO_indent(ptr noundef %20, i32 noundef %21, i32 noundef 128)
  %23 = icmp ne i32 %22, 0
  br i1 %23, label %25, label %24

24:                                               ; preds = %19
  store i32 0, ptr %6, align 4
  br label %148

25:                                               ; preds = %19
  %26 = load ptr, ptr %9, align 8, !tbaa !60
  %27 = call i32 @BN_is_zero(ptr noundef %26)
  %28 = icmp ne i32 %27, 0
  br i1 %28, label %29, label %36

29:                                               ; preds = %25
  %30 = load ptr, ptr %7, align 8, !tbaa !6
  %31 = load ptr, ptr %8, align 8, !tbaa !28
  %32 = call i32 (ptr, ptr, ...) @BIO_printf(ptr noundef %30, ptr noundef @.str.22, ptr noundef %31)
  %33 = icmp sle i32 %32, 0
  br i1 %33, label %34, label %35

34:                                               ; preds = %29
  store i32 0, ptr %6, align 4
  br label %148

35:                                               ; preds = %29
  store i32 1, ptr %6, align 4
  br label %148

36:                                               ; preds = %25
  %37 = load ptr, ptr %9, align 8, !tbaa !60
  %38 = call i32 @BN_num_bytes(ptr noundef %37)
  %39 = zext i32 %38 to i64
  %40 = icmp ule i64 %39, 8
  br i1 %40, label %41, label %67

41:                                               ; preds = %36
  call void @llvm.lifetime.start.p0(i64 8, ptr %12) #5
  %42 = load ptr, ptr %9, align 8, !tbaa !60
  %43 = call i32 @BN_is_negative(ptr noundef %42)
  %44 = icmp ne i32 %43, 0
  %45 = select i1 %44, ptr @.str.23, ptr @.str.24
  store ptr %45, ptr %12, align 8, !tbaa !28
  %46 = load ptr, ptr %7, align 8, !tbaa !6
  %47 = load ptr, ptr %8, align 8, !tbaa !28
  %48 = load ptr, ptr %12, align 8, !tbaa !28
  %49 = load ptr, ptr %9, align 8, !tbaa !60
  %50 = getelementptr inbounds nuw %struct.bignum_st, ptr %49, i32 0, i32 0
  %51 = load ptr, ptr %50, align 8, !tbaa !63
  %52 = getelementptr inbounds i64, ptr %51, i64 0
  %53 = load i64, ptr %52, align 8, !tbaa !23
  %54 = load ptr, ptr %12, align 8, !tbaa !28
  %55 = load ptr, ptr %9, align 8, !tbaa !60
  %56 = getelementptr inbounds nuw %struct.bignum_st, ptr %55, i32 0, i32 0
  %57 = load ptr, ptr %56, align 8, !tbaa !63
  %58 = getelementptr inbounds i64, ptr %57, i64 0
  %59 = load i64, ptr %58, align 8, !tbaa !23
  %60 = call i32 (ptr, ptr, ...) @BIO_printf(ptr noundef %46, ptr noundef @.str.25, ptr noundef %47, ptr noundef %48, i64 noundef %53, ptr noundef %54, i64 noundef %59)
  %61 = icmp sle i32 %60, 0
  br i1 %61, label %62, label %63

62:                                               ; preds = %41
  store i32 0, ptr %6, align 4
  store i32 1, ptr %13, align 4
  br label %64

63:                                               ; preds = %41
  store i32 0, ptr %13, align 4
  br label %64

64:                                               ; preds = %63, %62
  call void @llvm.lifetime.end.p0(i64 8, ptr %12) #5
  %65 = load i32, ptr %13, align 4
  switch i32 %65, label %150 [
    i32 0, label %66
    i32 1, label %148
  ]

66:                                               ; preds = %64
  br label %147

67:                                               ; preds = %36
  %68 = load ptr, ptr %10, align 8, !tbaa !28
  %69 = getelementptr inbounds i8, ptr %68, i64 0
  store i8 0, ptr %69, align 1, !tbaa !32
  %70 = load ptr, ptr %7, align 8, !tbaa !6
  %71 = load ptr, ptr %8, align 8, !tbaa !28
  %72 = load ptr, ptr %9, align 8, !tbaa !60
  %73 = call i32 @BN_is_negative(ptr noundef %72)
  %74 = icmp ne i32 %73, 0
  %75 = select i1 %74, ptr @.str.27, ptr @.str.24
  %76 = call i32 (ptr, ptr, ...) @BIO_printf(ptr noundef %70, ptr noundef @.str.26, ptr noundef %71, ptr noundef %75)
  %77 = icmp sle i32 %76, 0
  br i1 %77, label %78, label %79

78:                                               ; preds = %67
  store i32 0, ptr %6, align 4
  br label %148

79:                                               ; preds = %67
  call void @llvm.lifetime.start.p0(i64 4, ptr %14) #5
  %80 = load ptr, ptr %9, align 8, !tbaa !60
  %81 = load ptr, ptr %10, align 8, !tbaa !28
  %82 = getelementptr inbounds i8, ptr %81, i64 1
  %83 = call i64 @BN_bn2bin(ptr noundef %80, ptr noundef %82)
  %84 = trunc i64 %83 to i32
  store i32 %84, ptr %14, align 4, !tbaa !13
  %85 = load ptr, ptr %10, align 8, !tbaa !28
  %86 = getelementptr inbounds i8, ptr %85, i64 1
  %87 = load i8, ptr %86, align 1, !tbaa !32
  %88 = zext i8 %87 to i32
  %89 = and i32 %88, 128
  %90 = icmp ne i32 %89, 0
  br i1 %90, label %91, label %94

91:                                               ; preds = %79
  %92 = load i32, ptr %14, align 4, !tbaa !13
  %93 = add nsw i32 %92, 1
  store i32 %93, ptr %14, align 4, !tbaa !13
  br label %97

94:                                               ; preds = %79
  %95 = load ptr, ptr %10, align 8, !tbaa !28
  %96 = getelementptr inbounds nuw i8, ptr %95, i32 1
  store ptr %96, ptr %10, align 8, !tbaa !28
  br label %97

97:                                               ; preds = %94, %91
  call void @llvm.lifetime.start.p0(i64 4, ptr %15) #5
  store i32 0, ptr %15, align 4, !tbaa !13
  br label %98

98:                                               ; preds = %135, %97
  %99 = load i32, ptr %15, align 4, !tbaa !13
  %100 = load i32, ptr %14, align 4, !tbaa !13
  %101 = icmp slt i32 %99, %100
  br i1 %101, label %102, label %138

102:                                              ; preds = %98
  %103 = load i32, ptr %15, align 4, !tbaa !13
  %104 = srem i32 %103, 15
  %105 = icmp eq i32 %104, 0
  br i1 %105, label %106, label %118

106:                                              ; preds = %102
  %107 = load ptr, ptr %7, align 8, !tbaa !6
  %108 = call i32 @BIO_puts(ptr noundef %107, ptr noundef @.str.28)
  %109 = icmp sle i32 %108, 0
  br i1 %109, label %116, label %110

110:                                              ; preds = %106
  %111 = load ptr, ptr %7, align 8, !tbaa !6
  %112 = load i32, ptr %11, align 4, !tbaa !13
  %113 = add nsw i32 %112, 4
  %114 = call i32 @BIO_indent(ptr noundef %111, i32 noundef %113, i32 noundef 128)
  %115 = icmp ne i32 %114, 0
  br i1 %115, label %117, label %116

116:                                              ; preds = %110, %106
  store i32 0, ptr %6, align 4
  store i32 1, ptr %13, align 4
  br label %144

117:                                              ; preds = %110
  br label %118

118:                                              ; preds = %117, %102
  %119 = load ptr, ptr %7, align 8, !tbaa !6
  %120 = load ptr, ptr %10, align 8, !tbaa !28
  %121 = load i32, ptr %15, align 4, !tbaa !13
  %122 = sext i32 %121 to i64
  %123 = getelementptr inbounds i8, ptr %120, i64 %122
  %124 = load i8, ptr %123, align 1, !tbaa !32
  %125 = zext i8 %124 to i32
  %126 = load i32, ptr %15, align 4, !tbaa !13
  %127 = add nsw i32 %126, 1
  %128 = load i32, ptr %14, align 4, !tbaa !13
  %129 = icmp eq i32 %127, %128
  %130 = select i1 %129, ptr @.str.24, ptr @.str.30
  %131 = call i32 (ptr, ptr, ...) @BIO_printf(ptr noundef %119, ptr noundef @.str.29, i32 noundef %125, ptr noundef %130)
  %132 = icmp sle i32 %131, 0
  br i1 %132, label %133, label %134

133:                                              ; preds = %118
  store i32 0, ptr %6, align 4
  store i32 1, ptr %13, align 4
  br label %144

134:                                              ; preds = %118
  br label %135

135:                                              ; preds = %134
  %136 = load i32, ptr %15, align 4, !tbaa !13
  %137 = add nsw i32 %136, 1
  store i32 %137, ptr %15, align 4, !tbaa !13
  br label %98, !llvm.loop !65

138:                                              ; preds = %98
  %139 = load ptr, ptr %7, align 8, !tbaa !6
  %140 = call i32 @BIO_write(ptr noundef %139, ptr noundef @.str.28, i32 noundef 1)
  %141 = icmp sle i32 %140, 0
  br i1 %141, label %142, label %143

142:                                              ; preds = %138
  store i32 0, ptr %6, align 4
  store i32 1, ptr %13, align 4
  br label %144

143:                                              ; preds = %138
  store i32 0, ptr %13, align 4
  br label %144

144:                                              ; preds = %143, %142, %133, %116
  call void @llvm.lifetime.end.p0(i64 4, ptr %15) #5
  call void @llvm.lifetime.end.p0(i64 4, ptr %14) #5
  %145 = load i32, ptr %13, align 4
  switch i32 %145, label %150 [
    i32 0, label %146
    i32 1, label %148
  ]

146:                                              ; preds = %144
  br label %147

147:                                              ; preds = %146, %66
  store i32 1, ptr %6, align 4
  br label %148

148:                                              ; preds = %147, %144, %78, %64, %35, %34, %24, %18
  %149 = load i32, ptr %6, align 4
  ret i32 %149

150:                                              ; preds = %144, %64
  unreachable
}