; Function Attrs: nounwind uwtable
define internal fastcc range(i32 0, 2) i32 @bn_print(ptr noundef %0, ptr noundef %1, ptr noundef %2, ptr noundef %3, i32 noundef %4) unnamed_addr #0 {
  %6 = icmp eq ptr %2, null
  br i1 %6, label %.thread, label %7

7:                                                ; preds = %5
  %8 = tail call i32 @BIO_indent(ptr noundef %0, i32 noundef %4, i32 noundef 128) #5
  %.not = icmp eq i32 %8, 0
  br i1 %.not, label %.thread, label %9

9:                                                ; preds = %7
  %10 = tail call i32 @BN_is_zero(ptr noundef nonnull %2) #5
  %.not44 = icmp eq i32 %10, 0
  br i1 %.not44, label %14, label %11

11:                                               ; preds = %9
  %12 = tail call i32 (ptr, ptr, ...) @BIO_printf(ptr noundef %0, ptr noundef nonnull @.str.22, ptr noundef %1) #5
  %13 = icmp sgt i32 %12, 0
  %. = zext i1 %13 to i32
  br label %.thread

14:                                               ; preds = %9
  %15 = tail call i32 @BN_num_bytes(ptr noundef nonnull %2) #5
  %16 = icmp ult i32 %15, 9
  br i1 %16, label %17, label %24

17:                                               ; preds = %14
  %18 = tail call i32 @BN_is_negative(ptr noundef nonnull %2) #5
  %.not48 = icmp eq i32 %18, 0
  %19 = select i1 %.not48, ptr @.str.24, ptr @.str.23
  %20 = load ptr, ptr %2, align 8, !tbaa !45
  %21 = load i64, ptr %20, align 8, !tbaa !48
  %22 = tail call i32 (ptr, ptr, ...) @BIO_printf(ptr noundef %0, ptr noundef nonnull @.str.25, ptr noundef %1, ptr noundef nonnull %19, i64 noundef %21, ptr noundef nonnull %19, i64 noundef %21) #5
  %23 = icmp sgt i32 %22, 0
  br i1 %23, label %58, label %.thread

24:                                               ; preds = %14
  store i8 0, ptr %3, align 1, !tbaa !20
  %25 = tail call i32 @BN_is_negative(ptr noundef nonnull %2) #5
  %.not45 = icmp eq i32 %25, 0
  %26 = select i1 %.not45, ptr @.str.24, ptr @.str.27
  %27 = tail call i32 (ptr, ptr, ...) @BIO_printf(ptr noundef %0, ptr noundef nonnull @.str.26, ptr noundef %1, ptr noundef nonnull %26) #5
  %28 = icmp slt i32 %27, 1
  br i1 %28, label %.thread, label %29

29:                                               ; preds = %24
  %30 = getelementptr inbounds nuw i8, ptr %3, i64 1
  %31 = tail call i64 @BN_bn2bin(ptr noundef nonnull %2, ptr noundef nonnull %30) #5
  %32 = trunc i64 %31 to i32
  %33 = load i8, ptr %30, align 1, !tbaa !20
  %.not46 = icmp slt i8 %33, 0
  %.042 = select i1 %.not46, ptr %3, ptr %30
  %.lobit = lshr i8 %33, 7
  %34 = zext nneg i8 %.lobit to i32
  %.038 = add nsw i32 %34, %32
  %35 = add nsw i32 %4, 4
  %36 = zext i32 %.038 to i64
  %smax = tail call i32 @llvm.smax.i32(i32 %.038, i32 0)
  %wide.trip.count = zext nneg i32 %smax to i64
  br label %37

37:                                               ; preds = %47, %29
  %indvars.iv = phi i64 [ %indvars.iv.next, %47 ], [ 0, %29 ]
  %exitcond.not = icmp eq i64 %indvars.iv, %wide.trip.count
  br i1 %exitcond.not, label %55, label %38

38:                                               ; preds = %37
  %39 = trunc nuw nsw i64 %indvars.iv to i32
  %40 = urem i32 %39, 15
  %41 = icmp eq i32 %40, 0
  br i1 %41, label %42, label %47

42:                                               ; preds = %38
  %43 = tail call i32 @BIO_puts(ptr noundef %0, ptr noundef nonnull @.str.28) #5
  %44 = icmp slt i32 %43, 1
  br i1 %44, label %.thread, label %45

45:                                               ; preds = %42
  %46 = tail call i32 @BIO_indent(ptr noundef %0, i32 noundef %35, i32 noundef 128) #5
  %.not47 = icmp eq i32 %46, 0
  br i1 %.not47, label %.thread, label %47

47:                                               ; preds = %45, %38
  %48 = getelementptr inbounds nuw i8, ptr %.042, i64 %indvars.iv
  %49 = load i8, ptr %48, align 1, !tbaa !20
  %50 = zext i8 %49 to i32
  %indvars.iv.next = add nuw nsw i64 %indvars.iv, 1
  %51 = icmp eq i64 %indvars.iv.next, %36
  %52 = select i1 %51, ptr @.str.24, ptr @.str.30
  %53 = tail call i32 (ptr, ptr, ...) @BIO_printf(ptr noundef %0, ptr noundef nonnull @.str.29, i32 noundef %50, ptr noundef nonnull %52) #5
  %54 = icmp slt i32 %53, 1
  br i1 %54, label %.thread, label %37, !llvm.loop !50

55:                                               ; preds = %37
  %56 = tail call i32 @BIO_write(ptr noundef %0, ptr noundef nonnull @.str.28, i32 noundef 1) #5
  %57 = icmp sgt i32 %56, 0
  br i1 %57, label %58, label %.thread

58:                                               ; preds = %17, %55
  br label %.thread

.thread:                                          ; preds = %47, %42, %45, %17, %55, %24, %11, %7, %5, %58
  %.040 = phi i32 [ 0, %17 ], [ 1, %58 ], [ 0, %55 ], [ 1, %5 ], [ 0, %7 ], [ %., %11 ], [ 0, %24 ], [ 0, %45 ], [ 0, %42 ], [ 0, %47 ]
  ret i32 %.040
}